target datalayout = "e-m:e-p270:32:32-p271:32:32-p272:64:64-i64:64-i128:128-f80:128-n8:16:32:64-S128"
target triple = "x86_64-pc-linux-gnu"

%struct._wmem_tree_key_t = type { i32, ptr }
%struct._packet_info = type { ptr, ptr, i32, i32, %struct.nstime_t, %struct.nstime_t, %struct.nstime_t, i8, ptr, ptr, ptr, ptr, %struct._address, %struct._address, %struct._address, %struct._address, %struct._address, %struct._address, i32, ptr, i8, [3 x i8], %struct.anon, i32, i32, i32, i32, ptr, i8, ptr, ptr, i16, i16, i32, i32, i16, i32, i32, ptr, ptr, ptr, i8, i8, i16, i16, i16, i32, i16, i16, ptr, ptr, ptr, ptr, ptr, i32, i32 }
%struct.nstime_t = type { i64, i32 }
%struct._address = type { i32, i32, ptr, ptr }
%struct.anon = type { i8, [3 x i8] }
%struct.nvme_cmd_ctx = type { i32, i32, i32, [16 x i32], i32, %struct.nstime_t, %struct.nstime_t, i32, i8, %union.anon, i8 }
%union.anon = type { %struct.anon.1 }
%struct.anon.1 = type { i32, i32, i32, i32, i16, i8, i8, i64, i8 }
%struct.nvme_q_ctx = type { ptr, ptr, ptr, ptr, ptr, i16 }

; Function Attrs: nounwind null_pointer_is_valid sspstrong uwtable
define internal void @nvme_build_pending_cmd_key(ptr noundef %0, ptr noundef %1) #5 {
  %3 = alloca ptr, align 8
  %4 = alloca ptr, align 8
  store ptr %0, ptr %3, align 8
  store ptr %1, ptr %4, align 8
  %5 = load ptr, ptr %3, align 8
  %6 = getelementptr %struct._wmem_tree_key_t, ptr %5, i64 0
  %7 = getelementptr inbounds nuw %struct._wmem_tree_key_t, ptr %6, i32 0, i32 0
  store i32 1, ptr %7, align 8
  %8 = load ptr, ptr %4, align 8
  %9 = load ptr, ptr %3, align 8
  %10 = getelementptr %struct._wmem_tree_key_t, ptr %9, i64 0
  %11 = getelementptr inbounds nuw %struct._wmem_tree_key_t, ptr %10, i32 0, i32 1
  store ptr %8, ptr %11, align 8
  %12 = load ptr, ptr %3, align 8
  %13 = getelementptr %struct._wmem_tree_key_t, ptr %12, i64 1
  %14 = getelementptr inbounds nuw %struct._wmem_tree_key_t, ptr %13, i32 0, i32 0
  store i32 0, ptr %14, align 8
  %15 = load ptr, ptr %3, align 8
  %16 = getelementptr %struct._wmem_tree_key_t, ptr %15, i64 1
  %17 = getelementptr inbounds nuw %struct._wmem_tree_key_t, ptr %16, i32 0, i32 1
  store ptr null, ptr %17, align 8
  ret void
}

; Function Attrs: null_pointer_is_valid sspstrong uwtable
define hidden void @nvme_add_cmd_to_pending_list(ptr noundef %0, ptr noundef %1, ptr noundef %2, ptr noundef %3, i16 noundef zeroext %4) #0 {
  %6 = alloca ptr, align 8
  %7 = alloca ptr, align 8
  %8 = alloca ptr, align 8
  %9 = alloca ptr, align 8
  %10 = alloca i16, align 2
  %11 = alloca [3 x %struct._wmem_tree_key_t], align 16
  %12 = alloca i32, align 4
  store ptr %0, ptr %6, align 8
  store ptr %1, ptr %7, align 8
  store ptr %2, ptr %8, align 8
  store ptr %3, ptr %9, align 8
  store i16 %4, ptr %10, align 2
  call void @llvm.lifetime.start.p0(i64 48, ptr %11) #9
  call void @llvm.lifetime.start.p0(i64 4, ptr %12) #9
  %13 = load i16, ptr %10, align 2
  %14 = zext i16 %13 to i32
  store i32 %14, ptr %12, align 4
  %15 = load ptr, ptr %6, align 8
  %16 = getelementptr inbounds nuw %struct._packet_info, ptr %15, i32 0, i32 3
  %17 = load i32, ptr %16, align 4
  %18 = load ptr, ptr %8, align 8
  %19 = getelementptr inbounds nuw %struct.nvme_cmd_ctx, ptr %18, i32 0, i32 0
  store i32 %17, ptr %19, align 8
  %20 = load ptr, ptr %8, align 8
  %21 = getelementptr inbounds nuw %struct.nvme_cmd_ctx, ptr %20, i32 0, i32 1
  store i32 0, ptr %21, align 4
  %22 = load ptr, ptr %8, align 8
  %23 = getelementptr inbounds nuw %struct.nvme_cmd_ctx, ptr %22, i32 0, i32 5
  %24 = load ptr, ptr %6, align 8
  %25 = getelementptr inbounds nuw %struct._packet_info, ptr %24, i32 0, i32 4
  call void @llvm.memcpy.p0.p0.i64(ptr align 8 %23, ptr align 8 %25, i64 16, i1 false)
  %26 = load ptr, ptr %8, align 8
  %27 = getelementptr inbounds nuw %struct.nvme_cmd_ctx, ptr %26, i32 0, i32 6
  call void @nstime_set_zero(ptr noundef %27)
  %28 = getelementptr inbounds [3 x %struct._wmem_tree_key_t], ptr %11, i64 0, i64 0
  call void @nvme_build_pending_cmd_key(ptr noundef %28, ptr noundef %12)
  %29 = load ptr, ptr %7, align 8
  %30 = getelementptr inbounds nuw %struct.nvme_q_ctx, ptr %29, i32 0, i32 0
  %31 = load ptr, ptr %30, align 8
  %32 = getelementptr inbounds [3 x %struct._wmem_tree_key_t], ptr %11, i64 0, i64 0
  %33 = load ptr, ptr %9, align 8
  call void @wmem_tree_insert32_array(ptr noundef %31, ptr noundef %32, ptr noundef %33)
  call void @llvm.lifetime.end.p0(i64 4, ptr %12) #9
  call void @llvm.lifetime.end.p0(i64 48, ptr %11) #9
  ret void
}