; Function Attrs: null_pointer_is_valid sspstrong uwtable
define hidden void @nvme_add_cmd_to_pending_list(ptr noundef readonly captures(none) %0, ptr noundef readonly captures(none) %1, ptr noundef initializes((0, 8), (80, 96)) %2, ptr noundef %3, i16 noundef zeroext %4) local_unnamed_addr #0 {
  %6 = alloca [3 x %struct._wmem_tree_key_t], align 16
  %7 = alloca i32, align 4
  call void @llvm.lifetime.start.p0(i64 48, ptr nonnull %6) #10
  call void @llvm.lifetime.start.p0(i64 4, ptr nonnull %7) #10
  %8 = zext i16 %4 to i32
  store i32 %8, ptr %7, align 4
  %9 = getelementptr inbounds nuw i8, ptr %0, i64 20
  %10 = load i32, ptr %9, align 4
  store i32 %10, ptr %2, align 8
  %11 = getelementptr inbounds nuw i8, ptr %2, i64 4
  store i32 0, ptr %11, align 4
  %12 = getelementptr inbounds nuw i8, ptr %2, i64 80
  %13 = getelementptr inbounds nuw i8, ptr %0, i64 24
  tail call void @llvm.memcpy.p0.p0.i64(ptr noundef nonnull align 8 dereferenceable(16) %12, ptr noundef nonnull align 8 dereferenceable(16) %13, i64 16, i1 false)
  %14 = getelementptr inbounds nuw i8, ptr %2, i64 96
  tail call void @nstime_set_zero(ptr noundef nonnull %14)
  store i32 1, ptr %6, align 16
  %15 = getelementptr inbounds nuw i8, ptr %6, i64 8
  store ptr %7, ptr %15, align 8
  %16 = getelementptr inbounds nuw i8, ptr %6, i64 16
  store i32 0, ptr %16, align 16
  %17 = getelementptr inbounds nuw i8, ptr %6, i64 24
  store ptr null, ptr %17, align 8
  %18 = load ptr, ptr %1, align 8
  call void @wmem_tree_insert32_array(ptr noundef %18, ptr noundef nonnull %6, ptr noundef %3)
  call void @llvm.lifetime.end.p0(i64 4, ptr nonnull %7) #10
  call void @llvm.lifetime.end.p0(i64 48, ptr nonnull %6) #10
  ret void
}